target datalayout = "e-m:e-p270:32:32-p271:32:32-p272:64:64-i64:64-i128:128-f80:128-n8:16:32:64-S128"
target triple = "x86_64-pc-linux-gnu"

%struct.wtap_reader = type { i32, i64, i64, i32, %struct.wtap_reader_buf, %struct.wtap_reader_buf, i8, i64, i64, i32, i32, i8, i64, i8, i32, ptr, %struct.z_stream_s, i8, ptr, ptr, %struct.LZ4F_frameInfo_t, [19 x i8], ptr, ptr }
%struct.wtap_reader_buf = type { ptr, ptr, i32 }
%struct.z_stream_s = type { ptr, i32, i64, ptr, i32, i64, ptr, ptr, ptr, ptr, ptr, i32, i64, i64 }
%struct.LZ4F_frameInfo_t = type { i32, i32, i32, i32, i64, i32, i32 }

; Function Attrs: null_pointer_is_valid sspstrong uwtable
define internal i32 @check_for_zstd_compression(ptr noundef %0) #0 {
  %2 = alloca i32, align 4
  %3 = alloca ptr, align 8
  %4 = alloca i64, align 8
  %5 = alloca i32, align 4
  store ptr %0, ptr %3, align 8
  %6 = load ptr, ptr %3, align 8
  %7 = getelementptr inbounds nuw %struct.wtap_reader, ptr %6, i32 0, i32 4
  %8 = getelementptr inbounds nuw %struct.wtap_reader_buf, ptr %7, i32 0, i32 2
  %9 = load i32, ptr %8, align 8
  %10 = icmp uge i32 %9, 4
  br i1 %10, label %11, label %81

11:                                               ; preds = %1
  %12 = load ptr, ptr %3, align 8
  %13 = getelementptr inbounds nuw %struct.wtap_reader, ptr %12, i32 0, i32 4
  %14 = getelementptr inbounds nuw %struct.wtap_reader_buf, ptr %13, i32 0, i32 1
  %15 = load ptr, ptr %14, align 8
  %16 = getelementptr i8, ptr %15, i64 0
  %17 = load i8, ptr %16, align 1
  %18 = zext i8 %17 to i32
  %19 = icmp eq i32 %18, 40
  br i1 %19, label %20, label %81

20:                                               ; preds = %11
  %21 = load ptr, ptr %3, align 8
  %22 = getelementptr inbounds nuw %struct.wtap_reader, ptr %21, i32 0, i32 4
  %23 = getelementptr inbounds nuw %struct.wtap_reader_buf, ptr %22, i32 0, i32 1
  %24 = load ptr, ptr %23, align 8
  %25 = getelementptr i8, ptr %24, i64 1
  %26 = load i8, ptr %25, align 1
  %27 = zext i8 %26 to i32
  %28 = icmp eq i32 %27, 181
  br i1 %28, label %29, label %81

29:                                               ; preds = %20
  %30 = load ptr, ptr %3, align 8
  %31 = getelementptr inbounds nuw %struct.wtap_reader, ptr %30, i32 0, i32 4
  %32 = getelementptr inbounds nuw %struct.wtap_reader_buf, ptr %31, i32 0, i32 1
  %33 = load ptr, ptr %32, align 8
  %34 = getelementptr i8, ptr %33, i64 2
  %35 = load i8, ptr %34, align 1
  %36 = zext i8 %35 to i32
  %37 = icmp eq i32 %36, 47
  br i1 %37, label %38, label %81

38:                                               ; preds = %29
  %39 = load ptr, ptr %3, align 8
  %40 = getelementptr inbounds nuw %struct.wtap_reader, ptr %39, i32 0, i32 4
  %41 = getelementptr inbounds nuw %struct.wtap_reader_buf, ptr %40, i32 0, i32 1
  %42 = load ptr, ptr %41, align 8
  %43 = getelementptr i8, ptr %42, i64 3
  %44 = load i8, ptr %43, align 1
  %45 = zext i8 %44 to i32
  %46 = icmp eq i32 %45, 253
  br i1 %46, label %47, label %81

47:                                               ; preds = %38
  call void @llvm.lifetime.start.p0(i64 8, ptr %4) #14
  %48 = load ptr, ptr %3, align 8
  %49 = getelementptr inbounds nuw %struct.wtap_reader, ptr %48, i32 0, i32 18
  %50 = load ptr, ptr %49, align 8
  %51 = call i64 @ZSTD_initDStream(ptr noundef %50)
  store i64 %51, ptr %4, align 8
  %52 = load i64, ptr %4, align 8
  %53 = call i32 @ZSTD_isError(i64 noundef %52)
  %54 = icmp ne i32 %53, 0
  br i1 %54, label %55, label %62

55:                                               ; preds = %47
  %56 = load ptr, ptr %3, align 8
  %57 = getelementptr inbounds nuw %struct.wtap_reader, ptr %56, i32 0, i32 14
  store i32 -20, ptr %57, align 4
  %58 = load i64, ptr %4, align 8
  %59 = call ptr @ZSTD_getErrorName(i64 noundef %58)
  %60 = load ptr, ptr %3, align 8
  %61 = getelementptr inbounds nuw %struct.wtap_reader, ptr %60, i32 0, i32 15
  store ptr %59, ptr %61, align 8
  store i32 -1, ptr %2, align 4
  store i32 1, ptr %5, align 4
  br label %80

62:                                               ; preds = %47
  %63 = load ptr, ptr %3, align 8
  %64 = load ptr, ptr %3, align 8
  %65 = getelementptr inbounds nuw %struct.wtap_reader, ptr %64, i32 0, i32 1
  %66 = load i64, ptr %65, align 8
  %67 = load ptr, ptr %3, align 8
  %68 = getelementptr inbounds nuw %struct.wtap_reader, ptr %67, i32 0, i32 4
  %69 = getelementptr inbounds nuw %struct.wtap_reader_buf, ptr %68, i32 0, i32 2
  %70 = load i32, ptr %69, align 8
  %71 = zext i32 %70 to i64
  %72 = sub i64 %66, %71
  %73 = load ptr, ptr %3, align 8
  %74 = getelementptr inbounds nuw %struct.wtap_reader, ptr %73, i32 0, i32 2
  %75 = load i64, ptr %74, align 8
  call void @fast_seek_header(ptr noundef %63, i64 noundef %72, i64 noundef %75, i32 noundef 4)
  %76 = load ptr, ptr %3, align 8
  %77 = getelementptr inbounds nuw %struct.wtap_reader, ptr %76, i32 0, i32 9
  store i32 4, ptr %77, align 8
  %78 = load ptr, ptr %3, align 8
  %79 = getelementptr inbounds nuw %struct.wtap_reader, ptr %78, i32 0, i32 11
  store i8 1, ptr %79, align 8
  store i32 1, ptr %2, align 4
  store i32 1, ptr %5, align 4
  br label %80

80:                                               ; preds = %62, %55
  call void @llvm.lifetime.end.p0(i64 8, ptr %4) #14
  br label %82

81:                                               ; preds = %38, %29, %20, %11, %1
  store i32 0, ptr %2, align 4
  br label %82

82:                                               ; preds = %81, %80
  %83 = load i32, ptr %2, align 4
  ret i32 %83
}