; Function Attrs: null_pointer_is_valid sspstrong uwtable
define internal range(i32 -1, 2) i32 @check_for_zstd_compression(ptr noundef captures(none) %0) #0 {
  %2 = getelementptr inbounds nuw i8, ptr %0, i64 48
  %3 = load i32, ptr %2, align 8
  %4 = icmp ugt i32 %3, 3
  br i1 %4, label %5, label %41

5:                                                ; preds = %1
  %6 = getelementptr inbounds nuw i8, ptr %0, i64 40
  %7 = load ptr, ptr %6, align 8
  %8 = load i8, ptr %7, align 1
  %9 = icmp eq i8 %8, 40
  br i1 %9, label %10, label %41

10:                                               ; preds = %5
  %11 = getelementptr i8, ptr %7, i64 1
  %12 = load i8, ptr %11, align 1
  %13 = icmp eq i8 %12, -75
  br i1 %13, label %14, label %41

14:                                               ; preds = %10
  %15 = getelementptr i8, ptr %7, i64 2
  %16 = load i8, ptr %15, align 1
  %17 = icmp eq i8 %16, 47
  br i1 %17, label %18, label %41

18:                                               ; preds = %14
  %19 = getelementptr i8, ptr %7, i64 3
  %20 = load i8, ptr %19, align 1
  %21 = icmp eq i8 %20, -3
  br i1 %21, label %22, label %41

22:                                               ; preds = %18
  %23 = getelementptr inbounds nuw i8, ptr %0, i64 264
  %24 = load ptr, ptr %23, align 8
  %25 = tail call i64 @ZSTD_initDStream(ptr noundef %24)
  %26 = tail call i32 @ZSTD_isError(i64 noundef %25)
  %.not = icmp eq i32 %26, 0
  br i1 %.not, label %31, label %27

27:                                               ; preds = %22
  %28 = getelementptr inbounds nuw i8, ptr %0, i64 132
  store i32 -20, ptr %28, align 4
  %29 = tail call ptr @ZSTD_getErrorName(i64 noundef %25)
  %30 = getelementptr inbounds nuw i8, ptr %0, i64 136
  store ptr %29, ptr %30, align 8
  br label %41

31:                                               ; preds = %22
  %32 = getelementptr inbounds nuw i8, ptr %0, i64 8
  %33 = load i64, ptr %32, align 8
  %34 = load i32, ptr %2, align 8
  %35 = zext i32 %34 to i64
  %36 = sub i64 %33, %35
  %37 = getelementptr inbounds nuw i8, ptr %0, i64 16
  %38 = load i64, ptr %37, align 8
  tail call fastcc void @fast_seek_header(ptr noundef %0, i64 noundef %36, i64 noundef %38, i32 noundef 4)
  %39 = getelementptr inbounds nuw i8, ptr %0, i64 104
  store i32 4, ptr %39, align 8
  %40 = getelementptr inbounds nuw i8, ptr %0, i64 112
  store i8 1, ptr %40, align 8
  br label %41

41:                                               ; preds = %1, %5, %10, %14, %18, %27, %31
  %.1 = phi i32 [ -1, %27 ], [ 1, %31 ], [ 0, %18 ], [ 0, %14 ], [ 0, %10 ], [ 0, %5 ], [ 0, %1 ]
  ret i32 %.1
}